target datalayout = "e-m:e-p270:32:32-p271:32:32-p272:64:64-i64:64-i128:128-f80:128-n8:16:32:64-S128"
target triple = "x86_64-unknown-linux-gnu"

@.str.62 = private unnamed_addr constant [7 x i8] c"\\u%04X\00", align 1

; Function Attrs: mustprogress uwtable
define internal void @_ZN12_GLOBAL__N_16escapeEPKDsPcm(ptr noundef %s, ptr noundef %buffer, i64 noundef %n) #1 {
entry:
  %s.addr = alloca ptr, align 8
  %buffer.addr = alloca ptr, align 8
  %n.addr = alloca i64, align 8
  %length = alloca i32, align 4
  %i = alloca i32, align 4
  %c = alloca i32, align 4
  %__c2 = alloca i16, align 2
  store ptr %s, ptr %s.addr, align 8
  store ptr %buffer, ptr %buffer.addr, align 8
  store i64 %n, ptr %n.addr, align 8
  %0 = load ptr, ptr %s.addr, align 8
  %call = call i32 @u_strlen_75(ptr noundef %0)
  store i32 %call, ptr %length, align 4
  store i32 0, ptr %i, align 4
  br label %for.cond

for.cond:                                         ; preds = %if.end21, %entry
  br label %do.body

do.body:                                          ; preds = %for.cond
  %1 = load ptr, ptr %s.addr, align 8
  %2 = load i32, ptr %i, align 4
  %inc = add nsw i32 %2, 1
  store i32 %inc, ptr %i, align 4
  %idxprom = sext i32 %2 to i64
  %arrayidx = getelementptr inbounds i16, ptr %1, i64 %idxprom
  %3 = load i16, ptr %arrayidx, align 2
  %conv = zext i16 %3 to i32
  store i32 %conv, ptr %c, align 4
  %4 = load i32, ptr %c, align 4
  %and = and i32 %4, -1024
  %cmp = icmp eq i32 %and, 55296
  br i1 %cmp, label %if.then, label %if.end10

if.then:                                          ; preds = %do.body
  %5 = load i32, ptr %i, align 4
  %6 = load i32, ptr %length, align 4
  %cmp1 = icmp ne i32 %5, %6
  br i1 %cmp1, label %land.lhs.true, label %if.end

land.lhs.true:                                    ; preds = %if.then
  %7 = load ptr, ptr %s.addr, align 8
  %8 = load i32, ptr %i, align 4
  %idxprom2 = sext i32 %8 to i64
  %arrayidx3 = getelementptr inbounds i16, ptr %7, i64 %idxprom2
  %9 = load i16, ptr %arrayidx3, align 2
  store i16 %9, ptr %__c2, align 2
  %conv4 = zext i16 %9 to i32
  %and5 = and i32 %conv4, -1024
  %cmp6 = icmp eq i32 %and5, 56320
  br i1 %cmp6, label %if.then7, label %if.end

if.then7:                                         ; preds = %land.lhs.true
  %10 = load i32, ptr %i, align 4
  %inc8 = add nsw i32 %10, 1
  store i32 %inc8, ptr %i, align 4
  %11 = load i32, ptr %c, align 4
  %shl = shl i32 %11, 10
  %12 = load i16, ptr %__c2, align 2
  %conv9 = zext i16 %12 to i32
  %add = add nsw i32 %shl, %conv9
  %sub = sub nsw i32 %add, 56613888
  store i32 %sub, ptr %c, align 4
  br label %if.end

if.end:                                           ; preds = %if.then7, %land.lhs.true, %if.then
  br label %if.end10

if.end10:                                         ; preds = %if.end, %do.body
  br label %do.end

do.end:                                           ; preds = %if.end10
  %13 = load i32, ptr %c, align 4
  %cmp11 = icmp eq i32 %13, 0
  br i1 %cmp11, label %if.then12, label %if.else

if.then12:                                        ; preds = %do.end
  %14 = load ptr, ptr %buffer.addr, align 8
  store i8 0, ptr %14, align 1
  ret void

if.else:                                          ; preds = %do.end
  %15 = load i32, ptr %c, align 4
  %cmp13 = icmp sle i32 32, %15
  br i1 %cmp13, label %land.lhs.true14, label %if.else18

land.lhs.true14:                                  ; preds = %if.else
  %16 = load i32, ptr %c, align 4
  %cmp15 = icmp sle i32 %16, 126
  br i1 %cmp15, label %if.then16, label %if.else18

if.then16:                                        ; preds = %land.lhs.true14
  %17 = load i32, ptr %c, align 4
  %conv17 = trunc i32 %17 to i8
  %18 = load ptr, ptr %buffer.addr, align 8
  %incdec.ptr = getelementptr inbounds i8, ptr %18, i32 1
  store ptr %incdec.ptr, ptr %buffer.addr, align 8
  store i8 %conv17, ptr %18, align 1
  br label %if.end20

if.else18:                                        ; preds = %land.lhs.true14, %if.else
  %19 = load ptr, ptr %buffer.addr, align 8
  %20 = load i64, ptr %n.addr, align 8
  %21 = load i32, ptr %c, align 4
  %call19 = call i32 (ptr, i64, ptr, ...) @snprintf(ptr noundef %19, i64 noundef %20, ptr noundef @.str.62, i32 noundef %21) #12
  %22 = load ptr, ptr %buffer.addr, align 8
  %idx.ext = sext i32 %call19 to i64
  %add.ptr = getelementptr inbounds i8, ptr %22, i64 %idx.ext
  store ptr %add.ptr, ptr %buffer.addr, align 8
  br label %if.end20

if.end20:                                         ; preds = %if.else18, %if.then16
  br label %if.end21

if.end21:                                         ; preds = %if.end20
  br label %for.cond, !llvm.loop !19
}