; Function Attrs: mustprogress uwtable
define internal fastcc void @_ZN12_GLOBAL__N_16escapeEPKDsPcm(ptr noundef %s, ptr nocapture noundef writeonly %buffer) unnamed_addr #1 {
entry:
  %call = tail call i32 @u_strlen_75(ptr noundef %s)
  br label %for.cond

for.cond:                                         ; preds = %for.cond.backedge, %entry
  %i.0 = phi i32 [ 0, %entry ], [ %i.119, %for.cond.backedge ]
  %buffer.addr.0 = phi ptr [ %buffer, %entry ], [ %buffer.addr.0.be, %for.cond.backedge ]
  %inc = add nsw i32 %i.0, 1
  %idxprom = sext i32 %i.0 to i64
  %arrayidx = getelementptr inbounds i16, ptr %s, i64 %idxprom
  %0 = load i16, ptr %arrayidx, align 2
  %conv = zext i16 %0 to i32
  %and = and i32 %conv, 64512
  %cmp = icmp ne i32 %and, 55296
  %cmp1.not = icmp eq i32 %inc, %call
  %or.cond15 = select i1 %cmp, i1 true, i1 %cmp1.not
  br i1 %or.cond15, label %do.end, label %land.lhs.true

land.lhs.true:                                    ; preds = %for.cond
  %idxprom2 = sext i32 %inc to i64
  %arrayidx3 = getelementptr inbounds i16, ptr %s, i64 %idxprom2
  %1 = load i16, ptr %arrayidx3, align 2
  %conv4 = zext i16 %1 to i32
  %and5 = and i32 %conv4, 64512
  %cmp6 = icmp eq i32 %and5, 56320
  br i1 %cmp6, label %if.then7, label %if.else

if.then7:                                         ; preds = %land.lhs.true
  %inc8 = add nsw i32 %i.0, 2
  %shl = shl nuw nsw i32 %conv, 10
  %add = add nsw i32 %shl, -56613888
  %sub = add nuw nsw i32 %add, %conv4
  br label %if.else

do.end:                                           ; preds = %for.cond
  %cmp11 = icmp eq i16 %0, 0
  br i1 %cmp11, label %if.then12, label %if.else

if.then12:                                        ; preds = %do.end
  store i8 0, ptr %buffer.addr.0, align 1
  ret void

if.else:                                          ; preds = %land.lhs.true, %if.then7, %do.end
  %c.020 = phi i32 [ %conv, %do.end ], [ %conv, %land.lhs.true ], [ %sub, %if.then7 ]
  %i.119 = phi i32 [ %inc, %do.end ], [ %inc, %land.lhs.true ], [ %inc8, %if.then7 ]
  %2 = add nsw i32 %c.020, -32
  %or.cond = icmp ult i32 %2, 95
  br i1 %or.cond, label %if.then16, label %if.else18

if.then16:                                        ; preds = %if.else
  %conv17 = trunc i32 %c.020 to i8
  %incdec.ptr = getelementptr inbounds i8, ptr %buffer.addr.0, i64 1
  store i8 %conv17, ptr %buffer.addr.0, align 1
  br label %for.cond.backedge

for.cond.backedge:                                ; preds = %if.then16, %if.else18
  %buffer.addr.0.be = phi ptr [ %incdec.ptr, %if.then16 ], [ %add.ptr, %if.else18 ]
  br label %for.cond, !llvm.loop !19

if.else18:                                        ; preds = %if.else
  %call19 = tail call i32 (ptr, i64, ptr, ...) @snprintf(ptr noundef nonnull dereferenceable(1) %buffer.addr.0, i64 noundef 100, ptr noundef nonnull @.str.62, i32 noundef %c.020) #19
  %idx.ext = sext i32 %call19 to i64
  %add.ptr = getelementptr inbounds i8, ptr %buffer.addr.0, i64 %idx.ext
  br label %for.cond.backedge
}